target datalayout = "e-m:e-p270:32:32-p271:32:32-p272:64:64-i64:64-i128:128-f80:128-n8:16:32:64-S128"
target triple = "x86_64-pc-linux-gnu"

%struct.VariableStatData = type { ptr, ptr, ptr, ptr, i32, i32, i32, i8, i8 }
%struct.AttStatsSlot = type { i32, i32, i32, ptr, i32, ptr, i32, ptr, ptr }
%struct.FormData_pg_statistic = type { i32, i16, i8, float, i32, float, i16, i16, i16, i16, i16, i32, i32, i32, i32, i32, i32, i32, i32, i32, i32 }
%struct.RelOptInfo = type { i32, i32, ptr, double, i8, i8, i8, ptr, ptr, ptr, ptr, ptr, ptr, ptr, ptr, ptr, ptr, i32, i32, i32, i16, i16, ptr, ptr, ptr, ptr, ptr, ptr, ptr, ptr, i32, double, double, ptr, ptr, ptr, i32, i32, i32, i32, i8, ptr, ptr, ptr, ptr, ptr, %struct.QualCost, i32, ptr, i8, i8, ptr, ptr, ptr, ptr, i32, ptr, i8, ptr, ptr, ptr, ptr, ptr, ptr }
%struct.QualCost = type { double, double }
%struct.HeapTupleData = type { i32, %struct.ItemPointerData, i32, ptr }
%struct.ItemPointerData = type { %struct.BlockIdData, i16 }
%struct.BlockIdData = type { i16, i16 }
%struct.HeapTupleHeaderData = type { %union.anon.4, %struct.ItemPointerData, i16, i16, i8, [0 x i8] }
%union.anon.4 = type { %struct.HeapTupleFields }
%struct.HeapTupleFields = type { i32, i32, %union.anon.5 }
%union.anon.5 = type { i32 }

; Function Attrs: inlinehint nounwind uwtable
define internal ptr @GETSTRUCT(ptr noundef %0) #1 {
  %2 = alloca ptr, align 8
  store ptr %0, ptr %2, align 8
  %3 = load ptr, ptr %2, align 8
  %4 = getelementptr inbounds nuw %struct.HeapTupleData, ptr %3, i32 0, i32 3
  %5 = load ptr, ptr %4, align 8
  %6 = load ptr, ptr %2, align 8
  %7 = getelementptr inbounds nuw %struct.HeapTupleData, ptr %6, i32 0, i32 3
  %8 = load ptr, ptr %7, align 8
  %9 = getelementptr inbounds nuw %struct.HeapTupleHeaderData, ptr %8, i32 0, i32 4
  %10 = load i8, ptr %9, align 2
  %11 = zext i8 %10 to i32
  %12 = sext i32 %11 to i64
  %13 = getelementptr inbounds i8, ptr %5, i64 %12
  ret ptr %13
}

; Function Attrs: nounwind uwtable
define dso_local double @var_eq_non_const(ptr noundef %0, i32 noundef %1, i32 noundef %2, ptr noundef %3, i1 noundef zeroext %4, i1 noundef zeroext %5) #0 {
  %7 = alloca ptr, align 8
  %8 = alloca i32, align 4
  %9 = alloca i32, align 4
  %10 = alloca ptr, align 8
  %11 = alloca i8, align 1
  %12 = alloca i8, align 1
  %13 = alloca double, align 8
  %14 = alloca double, align 8
  %15 = alloca i8, align 1
  %16 = alloca ptr, align 8
  %17 = alloca double, align 8
  %18 = alloca %struct.AttStatsSlot, align 8
  store ptr %0, ptr %7, align 8
  store i32 %1, ptr %8, align 4
  store i32 %2, ptr %9, align 4
  store ptr %3, ptr %10, align 8
  %19 = zext i1 %4 to i8
  store i8 %19, ptr %11, align 1
  %20 = zext i1 %5 to i8
  store i8 %20, ptr %12, align 1
  call void @llvm.lifetime.start.p0(i64 8, ptr %13) #10
  call void @llvm.lifetime.start.p0(i64 8, ptr %14) #10
  store double 0.000000e+00, ptr %14, align 8
  call void @llvm.lifetime.start.p0(i64 1, ptr %15) #10
  %21 = load ptr, ptr %7, align 8
  %22 = getelementptr inbounds nuw %struct.VariableStatData, ptr %21, i32 0, i32 2
  %23 = load ptr, ptr %22, align 8
  %24 = icmp ne ptr %23, null
  br i1 %24, label %25, label %34

25:                                               ; preds = %6
  call void @llvm.lifetime.start.p0(i64 8, ptr %16) #10
  %26 = load ptr, ptr %7, align 8
  %27 = getelementptr inbounds nuw %struct.VariableStatData, ptr %26, i32 0, i32 2
  %28 = load ptr, ptr %27, align 8
  %29 = call ptr @GETSTRUCT(ptr noundef %28)
  store ptr %29, ptr %16, align 8
  %30 = load ptr, ptr %16, align 8
  %31 = getelementptr inbounds nuw %struct.FormData_pg_statistic, ptr %30, i32 0, i32 3
  %32 = load float, ptr %31, align 4
  %33 = fpext float %32 to double
  store double %33, ptr %14, align 8
  call void @llvm.lifetime.end.p0(i64 8, ptr %16) #10
  br label %34

34:                                               ; preds = %25, %6
  %35 = load ptr, ptr %7, align 8
  %36 = getelementptr inbounds nuw %struct.VariableStatData, ptr %35, i32 0, i32 7
  %37 = load i8, ptr %36, align 4, !range !4, !noundef !5
  %38 = trunc i8 %37 to i1
  br i1 %38, label %39, label %58

39:                                               ; preds = %34
  %40 = load ptr, ptr %7, align 8
  %41 = getelementptr inbounds nuw %struct.VariableStatData, ptr %40, i32 0, i32 1
  %42 = load ptr, ptr %41, align 8
  %43 = icmp ne ptr %42, null
  br i1 %43, label %44, label %58

44:                                               ; preds = %39
  %45 = load ptr, ptr %7, align 8
  %46 = getelementptr inbounds nuw %struct.VariableStatData, ptr %45, i32 0, i32 1
  %47 = load ptr, ptr %46, align 8
  %48 = getelementptr inbounds nuw %struct.RelOptInfo, ptr %47, i32 0, i32 31
  %49 = load double, ptr %48, align 8
  %50 = fcmp oge double %49, 1.000000e+00
  br i1 %50, label %51, label %58

51:                                               ; preds = %44
  %52 = load ptr, ptr %7, align 8
  %53 = getelementptr inbounds nuw %struct.VariableStatData, ptr %52, i32 0, i32 1
  %54 = load ptr, ptr %53, align 8
  %55 = getelementptr inbounds nuw %struct.RelOptInfo, ptr %54, i32 0, i32 31
  %56 = load double, ptr %55, align 8
  %57 = fdiv double 1.000000e+00, %56
  store double %57, ptr %13, align 8
  br label %104

58:                                               ; preds = %44, %39, %34
  %59 = load ptr, ptr %7, align 8
  %60 = getelementptr inbounds nuw %struct.VariableStatData, ptr %59, i32 0, i32 2
  %61 = load ptr, ptr %60, align 8
  %62 = icmp ne ptr %61, null
  br i1 %62, label %63, label %99

63:                                               ; preds = %58
  call void @llvm.lifetime.start.p0(i64 8, ptr %17) #10
  call void @llvm.lifetime.start.p0(i64 64, ptr %18) #10
  %64 = load double, ptr %14, align 8
  %65 = fsub double 1.000000e+00, %64
  store double %65, ptr %13, align 8
  %66 = load ptr, ptr %7, align 8
  %67 = call double @get_variable_numdistinct(ptr noundef %66, ptr noundef %15)
  store double %67, ptr %17, align 8
  %68 = load double, ptr %17, align 8
  %69 = fcmp ogt double %68, 1.000000e+00
  br i1 %69, label %70, label %74

70:                                               ; preds = %63
  %71 = load double, ptr %17, align 8
  %72 = load double, ptr %13, align 8
  %73 = fdiv double %72, %71
  store double %73, ptr %13, align 8
  br label %74

74:                                               ; preds = %70, %63
  %75 = load ptr, ptr %7, align 8
  %76 = getelementptr inbounds nuw %struct.VariableStatData, ptr %75, i32 0, i32 2
  %77 = load ptr, ptr %76, align 8
  %78 = call zeroext i1 @get_attstatsslot(ptr noundef %18, ptr noundef %77, i32 noundef 1, i32 noundef 0, i32 noundef 2)
  br i1 %78, label %79, label %98

79:                                               ; preds = %74
  %80 = getelementptr inbounds nuw %struct.AttStatsSlot, ptr %18, i32 0, i32 6
  %81 = load i32, ptr %80, align 8
  %82 = icmp sgt i32 %81, 0
  br i1 %82, label %83, label %97

83:                                               ; preds = %79
  %84 = load double, ptr %13, align 8
  %85 = getelementptr inbounds nuw %struct.AttStatsSlot, ptr %18, i32 0, i32 5
  %86 = load ptr, ptr %85, align 8
  %87 = getelementptr inbounds float, ptr %86, i64 0
  %88 = load float, ptr %87, align 4
  %89 = fpext float %88 to double
  %90 = fcmp ogt double %84, %89
  br i1 %90, label %91, label %97

91:                                               ; preds = %83
  %92 = getelementptr inbounds nuw %struct.AttStatsSlot, ptr %18, i32 0, i32 5
  %93 = load ptr, ptr %92, align 8
  %94 = getelementptr inbounds float, ptr %93, i64 0
  %95 = load float, ptr %94, align 4
  %96 = fpext float %95 to double
  store double %96, ptr %13, align 8
  br label %97

97:                                               ; preds = %91, %83, %79
  call void @free_attstatsslot(ptr noundef %18)
  br label %98

98:                                               ; preds = %97, %74
  call void @llvm.lifetime.end.p0(i64 64, ptr %18) #10
  call void @llvm.lifetime.end.p0(i64 8, ptr %17) #10
  br label %103

99:                                               ; preds = %58
  %100 = load ptr, ptr %7, align 8
  %101 = call double @get_variable_numdistinct(ptr noundef %100, ptr noundef %15)
  %102 = fdiv double 1.000000e+00, %101
  store double %102, ptr %13, align 8
  br label %103

103:                                              ; preds = %99, %98
  br label %104

104:                                              ; preds = %103, %51
  %105 = load i8, ptr %12, align 1, !range !4, !noundef !5
  %106 = trunc i8 %105 to i1
  br i1 %106, label %107, label %112

107:                                              ; preds = %104
  %108 = load double, ptr %13, align 8
  %109 = fsub double 1.000000e+00, %108
  %110 = load double, ptr %14, align 8
  %111 = fsub double %109, %110
  store double %111, ptr %13, align 8
  br label %112

112:                                              ; preds = %107, %104
  br label %113

113:                                              ; preds = %112
  %114 = load double, ptr %13, align 8
  %115 = fcmp olt double %114, 0.000000e+00
  br i1 %115, label %116, label %117

116:                                              ; preds = %113
  store double 0.000000e+00, ptr %13, align 8
  br label %122

117:                                              ; preds = %113
  %118 = load double, ptr %13, align 8
  %119 = fcmp ogt double %118, 1.000000e+00
  br i1 %119, label %120, label %121

120:                                              ; preds = %117
  store double 1.000000e+00, ptr %13, align 8
  br label %121

121:                                              ; preds = %120, %117
  br label %122

122:                                              ; preds = %121, %116
  br label %123

123:                                              ; preds = %122
  br label %124

124:                                              ; preds = %123
  %125 = load double, ptr %13, align 8
  call void @llvm.lifetime.end.p0(i64 1, ptr %15) #10
  call void @llvm.lifetime.end.p0(i64 8, ptr %14) #10
  call void @llvm.lifetime.end.p0(i64 8, ptr %13) #10
  ret double %125
}