; Function Attrs: nounwind uwtable
define dso_local double @var_eq_non_const(ptr noundef readonly captures(none) %0, i32 %1, i32 %2, ptr readnone captures(none) %3, i1 zeroext %4, i1 noundef zeroext %5) local_unnamed_addr #0 {
  %7 = alloca i8, align 1
  %8 = alloca %struct.AttStatsSlot, align 8
  call void @llvm.lifetime.start.p0(i64 1, ptr nonnull %7) #12
  %9 = getelementptr inbounds nuw i8, ptr %0, i64 16
  %10 = load ptr, ptr %9, align 8
  %.not = icmp eq ptr %10, null
  br i1 %.not, label %20, label %11

11:                                               ; preds = %6
  %12 = getelementptr i8, ptr %10, i64 16
  %.val = load ptr, ptr %12, align 8
  %13 = getelementptr inbounds nuw i8, ptr %.val, i64 22
  %14 = load i8, ptr %13, align 2
  %15 = zext i8 %14 to i64
  %16 = getelementptr inbounds nuw i8, ptr %.val, i64 %15
  %17 = getelementptr inbounds nuw i8, ptr %16, i64 8
  %18 = load float, ptr %17, align 4
  %19 = fpext float %18 to double
  br label %20

20:                                               ; preds = %11, %6
  %.021 = phi double [ %19, %11 ], [ 0.000000e+00, %6 ]
  %21 = getelementptr inbounds nuw i8, ptr %0, i64 44
  %22 = load i8, ptr %21, align 4, !range !4, !noundef !5
  %23 = trunc nuw i8 %22 to i1
  br i1 %23, label %24, label %33

24:                                               ; preds = %20
  %25 = getelementptr inbounds nuw i8, ptr %0, i64 8
  %26 = load ptr, ptr %25, align 8
  %.not27 = icmp eq ptr %26, null
  br i1 %.not27, label %33, label %27

27:                                               ; preds = %24
  %28 = getelementptr inbounds nuw i8, ptr %26, i64 200
  %29 = load double, ptr %28, align 8
  %30 = fcmp ult double %29, 1.000000e+00
  br i1 %30, label %33, label %31

31:                                               ; preds = %27
  %32 = fdiv double 1.000000e+00, %29
  br label %57

33:                                               ; preds = %27, %24, %20
  br i1 %.not, label %54, label %34

34:                                               ; preds = %33
  call void @llvm.lifetime.start.p0(i64 64, ptr nonnull %8) #12
  %35 = fsub double 1.000000e+00, %.021
  %36 = call double @get_variable_numdistinct(ptr noundef nonnull %0, ptr noundef nonnull %7)
  %37 = fcmp ogt double %36, 1.000000e+00
  %38 = fdiv double %35, %36
  %.1 = select i1 %37, double %38, double %35
  %39 = load ptr, ptr %9, align 8
  %40 = call zeroext i1 @get_attstatsslot(ptr noundef nonnull %8, ptr noundef %39, i32 noundef 1, i32 noundef 0, i32 noundef 2) #12
  br i1 %40, label %41, label %53

41:                                               ; preds = %34
  %42 = getelementptr inbounds nuw i8, ptr %8, i64 40
  %43 = load i32, ptr %42, align 8
  %44 = icmp sgt i32 %43, 0
  br i1 %44, label %45, label %52

45:                                               ; preds = %41
  %46 = getelementptr inbounds nuw i8, ptr %8, i64 32
  %47 = load ptr, ptr %46, align 8
  %48 = load float, ptr %47, align 4
  %49 = fpext float %48 to double
  %50 = fcmp ogt double %.1, %49
  br i1 %50, label %51, label %52

51:                                               ; preds = %45
  br label %52

52:                                               ; preds = %51, %45, %41
  %.3 = phi double [ %49, %51 ], [ %.1, %45 ], [ %.1, %41 ]
  call void @free_attstatsslot(ptr noundef nonnull %8) #12
  br label %53

53:                                               ; preds = %52, %34
  %.2 = phi double [ %.3, %52 ], [ %.1, %34 ]
  call void @llvm.lifetime.end.p0(i64 64, ptr nonnull %8) #12
  br label %57

54:                                               ; preds = %33
  %55 = call double @get_variable_numdistinct(ptr noundef nonnull %0, ptr noundef nonnull %7)
  %56 = fdiv double 1.000000e+00, %55
  br label %57

57:                                               ; preds = %53, %54, %31
  %.0 = phi double [ %32, %31 ], [ %.2, %53 ], [ %56, %54 ]
  %58 = fsub double 1.000000e+00, %.0
  %59 = fsub double %58, %.021
  %.4 = select i1 %5, double %59, double %.0
  %60 = fcmp olt double %.4, 0.000000e+00
  br i1 %60, label %64, label %61

61:                                               ; preds = %57
  %62 = fcmp ogt double %.4, 1.000000e+00
  br i1 %62, label %63, label %64

63:                                               ; preds = %61
  br label %64

64:                                               ; preds = %57, %61, %63
  %.5 = phi double [ 1.000000e+00, %63 ], [ %.4, %61 ], [ 0.000000e+00, %57 ]
  call void @llvm.lifetime.end.p0(i64 1, ptr nonnull %7) #12
  ret double %.5
}